; Function Attrs: mustprogress nofree norecurse nosync nounwind willreturn memory(argmem: read) uwtable
define range(i32 0, 2) i32 @ossl_qrx_unprocessed_read_pending(ptr noundef readonly captures(none) %0) local_unnamed_addr #3 {
  %2 = getelementptr i8, ptr %0, i64 64
  %.val = load i64, ptr %2, align 8, !tbaa !54
  %.not = icmp eq i64 %.val, 0
  br i1 %.not, label %3, label %7

3:                                                ; preds = %1
  %4 = getelementptr i8, ptr %0, i64 88
  %.val3 = load i64, ptr %4, align 8, !tbaa !54
  %5 = icmp ne i64 %.val3, 0
  %6 = zext i1 %5 to i32
  br label %7

7:                                                ; preds = %3, %1
  %8 = phi i32 [ 1, %1 ], [ %6, %3 ]
  ret i32 %8
}